Certificate:
    Data:
        Version: 3 (0x2)
        Serial Number:
            34:2c:97:2e:94:f2:97:9a:f6:8a:62:db:7b:0b:6e:e9
        Signature Algorithm: sha256WithRSAEncryption
        Issuer: CN=vsfi
        Validity
            Not Before: Jun  1 16:01:01 2023 GMT
            Not After : Sep  3 16:01:01 2025 GMT
        Subject: CN=cotsom1
        Subject Public Key Info:
            Public Key Algorithm: rsaEncryption
                RSA Public-Key: (2048 bit)
                Modulus:
                    00:ba:8c:17:19:a3:9e:85:5c:79:b8:6c:e0:2a:85:
                    0b:2f:22:06:cd:04:d0:88:50:4d:3f:b2:0a:15:dd:
                    77:b0:d4:21:d3:6e:95:31:7b:16:24:58:69:47:c4:
                    8f:61:26:dc:c0:1f:fb:c6:8c:04:df:3c:0d:a9:77:
                    e0:4d:df:a5:39:a4:d4:96:65:1b:b1:b4:c3:47:2f:
                    e0:73:09:bf:56:a2:8c:22:d0:02:16:84:07:7a:1a:
                    b2:28:78:2c:c0:7c:d2:66:39:d3:2c:f2:5d:5d:f6:
                    e9:3b:fa:3d:62:9b:93:35:e9:34:84:34:cc:f8:f7:
                    a7:8c:1d:ac:43:71:ea:60:ea:e5:b3:9f:b3:68:1a:
                    a8:26:55:23:0b:16:05:09:16:ae:23:f4:16:58:22:
                    cc:92:e5:4c:69:d6:fa:f6:1c:3a:ce:51:a7:d4:e6:
                    b2:06:5e:ec:30:2a:25:e7:03:43:20:3b:a3:7b:f9:
                    4a:d3:d3:c0:de:dc:f5:f9:d6:5c:7b:6a:4b:9b:c8:
                    91:d6:9f:f6:93:29:e1:8d:3c:34:a5:7a:ac:ad:88:
                    d0:8b:0e:0d:25:98:e1:ca:4b:2c:2e:7e:8b:ed:e0:
                    24:93:39:1d:71:2c:23:2f:23:aa:6c:87:20:86:b3:
                    bf:6b:28:da:57:eb:38:b0:2c:f4:42:b5:c0:08:cf:
                    63:35
                Exponent: 65537 (0x10001)
        X509v3 extensions:
            X509v3 Basic Constraints: 
                CA:FALSE
            X509v3 Subject Key Identifier: 
                DA:4D:27:33:75:2F:3A:70:EA:76:59:8F:8D:8F:21:38:9E:42:CD:1B
            X509v3 Authority Key Identifier: 
                keyid:71:19:E8:E8:66:C1:66:A1:FD:B2:74:0E:87:80:8B:23:03:C8:30:A2
                DirName:/CN=vsfi
                serial:1F:EA:C5:88:1F:79:96:B3:DC:4A:0F:D9:5B:B3:97:4C:47:88:F7:76

            X509v3 Extended Key Usage: 
                TLS Web Client Authentication
            X509v3 Key Usage: 
                Digital Signature
    Signature Algorithm: sha256WithRSAEncryption
         0f:18:00:39:78:7f:7b:29:14:d6:1a:66:a0:a0:6a:7a:31:19:
         38:ce:54:d9:be:f8:e7:99:7c:3d:1a:29:5c:aa:76:b5:8f:0f:
         3f:96:bf:d1:fa:07:87:d9:26:0c:6b:e0:5c:ca:34:86:d6:60:
         0b:9d:68:48:3a:0f:77:a3:3f:e1:d8:08:2c:52:e2:36:94:6f:
         97:22:25:53:51:1d:ca:d6:93:b4:d6:35:66:0a:55:f6:73:52:
         ad:ed:03:e7:49:58:03:08:4b:a2:5f:f5:b2:ab:d4:3f:c7:82:
         8e:a6:4e:d8:d9:d0:28:1c:d6:7b:ca:86:bf:5e:27:64:e1:93:
         b0:17:b6:44:52:55:db:b8:5b:a1:a8:c7:0b:d6:b1:57:8b:f6:
         02:c9:b5:98:43:0b:9f:36:f0:0a:96:ea:6f:d6:40:8a:c9:27:
         16:9c:43:bc:2a:b4:2c:09:08:aa:37:ae:a4:40:c1:d8:50:26:
         9c:18:bb:bc:06:6c:c0:9a:5c:5a:a6:5f:a6:fd:bc:2c:0f:01:
         f0:6c:b0:93:aa:37:ad:f4:82:0c:9e:a5:f4:68:07:fb:82:17:
         be:d2:02:14:eb:1b:7d:61:e5:9c:0c:3f:5b:bc:5e:ca:6c:ad:
         94:b6:f2:4c:2f:77:62:ff:ca:23:ec:fc:56:2d:45:94:d5:38:
         7e:ba:1f:55
-----BEGIN CERTIFICATE-----
MIIDRzCCAi+gAwIBAgIQNCyXLpTyl5r2imLbewtu6TANBgkqhkiG9w0BAQsFADAP
MQ0wCwYDVQQDDAR2c2ZpMB4XDTIzMDYwMTE2MDEwMVoXDTI1MDkwMzE2MDEwMVow
EjEQMA4GA1UEAwwHY290c29tMTCCASIwDQYJKoZIhvcNAQEBBQADggEPADCCAQoC
ggEBALqMFxmjnoVcebhs4CqFCy8iBs0E0IhQTT+yChXdd7DUIdNulTF7FiRYaUfE
j2Em3MAf+8aMBN88Dal34E3fpTmk1JZlG7G0w0cv4HMJv1aijCLQAhaEB3oasih4
LMB80mY50yzyXV326Tv6PWKbkzXpNIQ0zPj3p4wdrENx6mDq5bOfs2gaqCZVIwsW
BQkWriP0FlgizJLlTGnW+vYcOs5Rp9TmsgZe7DAqJecDQyA7o3v5StPTwN7c9fnW
XHtqS5vIkdaf9pMp4Y08NKV6rK2I0IsODSWY4cpLLC5+i+3gJJM5HXEsIy8jqmyH
IIazv2so2lfrOLAs9EK1wAjPYzUCAwEAAaOBmzCBmDAJBgNVHRMEAjAAMB0GA1Ud
DgQWBBTaTSczdS86cOp2WY+NjyE4nkLNGzBKBgNVHSMEQzBBgBRxGejoZsFmof2y
dA6HgIsjA8gwoqETpBEwDzENMAsGA1UEAwwEdnNmaYIUH+rFiB95lrPcSg/ZW7OX
TEeI93YwEwYDVR0lBAwwCgYIKwYBBQUHAwIwCwYDVR0PBAQDAgeAMA0GCSqGSIb3
DQEBCwUAA4IBAQAPGAA5eH97KRTWGmagoGp6MRk4zlTZvvjnmXw9Gilcqna1jw8/
lr/R+geH2SYMa+BcyjSG1mALnWhIOg93oz/h2AgsUuI2lG+XIiVTUR3K1pO01jVm
ClX2c1Kt7QPnSVgDCEuiX/Wyq9Q/x4KOpk7Y2dAoHNZ7yoa/Xidk4ZOwF7ZEUlXb
uFuhqMcL1rFXi/YCybWYQwufNvAKlupv1kCKyScWnEO8KrQsCQiqN66kQMHYUCac
GLu8BmzAmlxapl+m/bwsDwHwbLCTqjet9IIMnqX0aAf7ghe+0gIU6xt9YeWcDD9b
vF7KbK2UtvJML3di/8oj7PxWLUWU1Th+uh9V
-----END CERTIFICATE-----
