Certificate:
    Data:
        Version: 3 (0x2)
        Serial Number:
            cb:74:7e:24:eb:7e:eb:a5:0f:95:30:2a:4d:5d:6b:da
        Signature Algorithm: sha256WithRSAEncryption
        Issuer: CN=vsfi
        Validity
            Not Before: Jun  1 16:00:59 2023 GMT
            Not After : Sep  3 16:00:59 2025 GMT
        Subject: CN=cotsom
        Subject Public Key Info:
            Public Key Algorithm: rsaEncryption
                RSA Public-Key: (2048 bit)
                Modulus:
                    00:da:9d:ec:83:70:1f:e5:c8:65:93:18:ab:91:3d:
                    d2:ed:a2:7d:1f:83:58:95:29:1e:6b:d0:44:89:59:
                    dd:55:ad:5f:1d:2d:76:59:52:3e:cd:fb:90:06:72:
                    a5:08:85:b4:fd:5d:90:1a:11:04:07:ec:69:99:04:
                    a9:21:1a:70:85:5e:d2:17:34:7b:3e:d1:b8:84:01:
                    9f:b5:c8:23:e3:61:fe:e5:1c:7e:30:c0:40:a3:3b:
                    12:e8:75:5c:34:dc:83:02:48:2f:e7:d3:48:78:4a:
                    33:6c:ca:54:a3:5b:fa:e4:e0:9c:06:78:6c:a7:b3:
                    9a:9b:15:ee:36:44:7c:1c:8c:25:2e:c2:17:f9:f0:
                    db:9f:a4:82:db:fa:99:92:c3:7b:ed:c1:76:8a:36:
                    08:25:2d:9d:4b:fd:a1:84:a4:d1:b9:03:96:a6:7e:
                    87:a3:b7:5a:d9:f2:77:56:8a:7c:ee:18:57:7c:96:
                    59:9b:96:06:5d:ad:94:ce:cb:6f:fd:2f:2c:a8:1a:
                    64:06:82:94:d5:38:fd:b0:39:a8:43:d9:25:46:90:
                    7f:fe:60:e6:d6:6c:68:67:e2:e6:19:81:0e:95:fc:
                    59:19:4b:70:f0:1f:aa:68:2f:7f:fb:bb:f4:f5:10:
                    d8:3b:a1:8d:dc:1d:30:30:61:cf:c9:eb:2d:a2:55:
                    10:85
                Exponent: 65537 (0x10001)
        X509v3 extensions:
            X509v3 Basic Constraints: 
                CA:FALSE
            X509v3 Subject Key Identifier: 
                F9:17:3E:47:D7:64:17:C9:6D:85:ED:6C:31:B6:E3:CD:64:36:7F:D7
            X509v3 Authority Key Identifier: 
                keyid:71:19:E8:E8:66:C1:66:A1:FD:B2:74:0E:87:80:8B:23:03:C8:30:A2
                DirName:/CN=vsfi
                serial:1F:EA:C5:88:1F:79:96:B3:DC:4A:0F:D9:5B:B3:97:4C:47:88:F7:76

            X509v3 Extended Key Usage: 
                TLS Web Client Authentication
            X509v3 Key Usage: 
                Digital Signature
    Signature Algorithm: sha256WithRSAEncryption
         9f:87:83:cf:66:a8:8e:f6:f9:fc:51:c3:91:41:a9:a2:b5:a8:
         48:88:9a:a9:75:80:72:09:b7:3f:9c:c0:17:9c:66:3e:66:ff:
         bf:13:a3:db:55:4c:92:ca:4a:61:49:e0:f7:b3:29:f2:f2:bf:
         22:ca:71:96:44:78:92:02:cf:8c:f4:53:60:89:a7:94:a0:10:
         82:8b:d7:a9:ec:69:92:bb:8e:df:0e:f5:b7:14:39:53:b9:9f:
         6a:e9:75:26:1c:51:ac:c4:d3:38:0c:5a:e4:4a:4a:c8:1b:e7:
         37:39:56:4a:5d:d8:1c:97:b6:f3:1c:41:3e:fd:0d:fe:57:3b:
         e3:2e:ac:8e:39:ed:92:56:68:9f:3e:47:c6:0e:bc:33:6e:1f:
         25:51:c0:e2:0a:b2:a7:66:35:2c:d2:ee:7e:85:27:85:1e:53:
         35:70:90:c3:26:ed:64:b9:f7:94:3b:75:15:32:f4:76:ea:0c:
         7c:0e:1b:4b:86:7f:b2:9b:49:a2:84:26:dc:bd:16:28:90:52:
         1b:67:ea:83:59:07:53:81:d8:dd:19:fd:97:9a:f2:26:40:8f:
         30:f0:fb:4a:5f:07:43:ed:e7:74:c5:cd:07:a9:5b:e3:fa:13:
         f4:25:bd:0a:12:84:67:72:e4:38:60:cd:de:8c:06:e7:77:06:
         45:80:cf:3c
-----BEGIN CERTIFICATE-----
MIIDRzCCAi+gAwIBAgIRAMt0fiTrfuulD5UwKk1da9owDQYJKoZIhvcNAQELBQAw
DzENMAsGA1UEAwwEdnNmaTAeFw0yMzA2MDExNjAwNTlaFw0yNTA5MDMxNjAwNTla
MBExDzANBgNVBAMMBmNvdHNvbTCCASIwDQYJKoZIhvcNAQEBBQADggEPADCCAQoC
ggEBANqd7INwH+XIZZMYq5E90u2ifR+DWJUpHmvQRIlZ3VWtXx0tdllSPs37kAZy
pQiFtP1dkBoRBAfsaZkEqSEacIVe0hc0ez7RuIQBn7XII+Nh/uUcfjDAQKM7Euh1
XDTcgwJIL+fTSHhKM2zKVKNb+uTgnAZ4bKezmpsV7jZEfByMJS7CF/nw25+kgtv6
mZLDe+3Bdoo2CCUtnUv9oYSk0bkDlqZ+h6O3Wtnyd1aKfO4YV3yWWZuWBl2tlM7L
b/0vLKgaZAaClNU4/bA5qEPZJUaQf/5g5tZsaGfi5hmBDpX8WRlLcPAfqmgvf/u7
9PUQ2DuhjdwdMDBhz8nrLaJVEIUCAwEAAaOBmzCBmDAJBgNVHRMEAjAAMB0GA1Ud
DgQWBBT5Fz5H12QXyW2F7WwxtuPNZDZ/1zBKBgNVHSMEQzBBgBRxGejoZsFmof2y
dA6HgIsjA8gwoqETpBEwDzENMAsGA1UEAwwEdnNmaYIUH+rFiB95lrPcSg/ZW7OX
TEeI93YwEwYDVR0lBAwwCgYIKwYBBQUHAwIwCwYDVR0PBAQDAgeAMA0GCSqGSIb3
DQEBCwUAA4IBAQCfh4PPZqiO9vn8UcORQamitahIiJqpdYByCbc/nMAXnGY+Zv+/
E6PbVUySykphSeD3syny8r8iynGWRHiSAs+M9FNgiaeUoBCCi9ep7GmSu47fDvW3
FDlTuZ9q6XUmHFGsxNM4DFrkSkrIG+c3OVZKXdgcl7bzHEE+/Q3+VzvjLqyOOe2S
VmifPkfGDrwzbh8lUcDiCrKnZjUs0u5+hSeFHlM1cJDDJu1kufeUO3UVMvR26gx8
DhtLhn+ym0mihCbcvRYokFIbZ+qDWQdTgdjdGf2XmvImQI8w8PtKXwdD7ed0xc0H
qVvj+hP0Jb0KEoRncuQ4YM3ejAbndwZFgM88
-----END CERTIFICATE-----
