Certificate:
    Data:
        Version: 3 (0x2)
        Serial Number:
            a2:8b:f8:e5:0b:33:f4:fd:f3:1a:15:fb:63:ba:cd:8b
        Signature Algorithm: sha256WithRSAEncryption
        Issuer: CN=vsfi
        Validity
            Not Before: Jun  1 16:00:54 2023 GMT
            Not After : Sep  3 16:00:54 2025 GMT
        Subject: CN=192.168.86.128
        Subject Public Key Info:
            Public Key Algorithm: rsaEncryption
                RSA Public-Key: (2048 bit)
                Modulus:
                    00:c6:d4:d5:93:46:a8:e3:b1:de:0e:70:59:aa:2e:
                    b3:52:74:60:74:e8:7d:9e:0f:2c:f2:a0:b6:2f:0b:
                    27:18:22:0e:48:c4:b4:53:af:f8:00:04:3f:59:1c:
                    6c:1a:f2:c5:2d:6e:d8:8e:34:c2:f2:74:04:f8:ec:
                    41:a4:a8:33:99:d8:71:72:95:0d:3b:2c:ef:5e:81:
                    83:18:c7:dd:6c:47:77:ff:68:d3:77:51:18:d8:08:
                    a7:e9:44:38:cc:18:bf:af:37:b8:8a:ad:5a:00:b1:
                    c0:89:3b:fd:ce:41:91:cf:ed:61:62:b2:2b:ad:80:
                    89:c9:b0:53:89:2d:73:d6:f1:b0:40:c0:6c:e2:ed:
                    a2:99:95:03:17:28:ec:70:62:aa:7f:4b:86:d9:3d:
                    de:88:1a:33:20:c4:e0:ac:dd:91:78:63:6a:81:24:
                    40:ec:f6:ef:27:04:8b:88:c8:91:d3:70:2a:be:7e:
                    49:89:a8:91:19:03:16:b9:f1:f8:6d:d0:ba:dc:83:
                    55:7e:9e:1a:fa:8c:c7:a3:74:ab:de:94:57:27:7f:
                    12:73:05:3f:09:58:83:dd:67:ab:2d:a4:dd:1b:a6:
                    41:8c:30:44:6d:58:50:46:5e:91:1d:20:e5:fb:9e:
                    f5:83:0b:f2:61:55:22:ba:cc:cb:05:9d:9f:19:34:
                    21:6d
                Exponent: 65537 (0x10001)
        X509v3 extensions:
            X509v3 Basic Constraints: 
                CA:FALSE
            X509v3 Subject Key Identifier: 
                3D:8B:1F:D1:F1:82:2A:EE:20:9B:FB:31:4A:AD:C8:B6:BA:8B:B7:78
            X509v3 Authority Key Identifier: 
                keyid:71:19:E8:E8:66:C1:66:A1:FD:B2:74:0E:87:80:8B:23:03:C8:30:A2
                DirName:/CN=vsfi
                serial:1F:EA:C5:88:1F:79:96:B3:DC:4A:0F:D9:5B:B3:97:4C:47:88:F7:76

            X509v3 Extended Key Usage: 
                TLS Web Server Authentication
            X509v3 Key Usage: 
                Digital Signature, Key Encipherment
            X509v3 Subject Alternative Name: 
                IP Address:192.168.86.128
    Signature Algorithm: sha256WithRSAEncryption
         43:aa:f0:20:e1:45:29:ba:ba:fe:4e:3f:6b:ec:e8:17:8d:a7:
         38:92:a6:1c:9e:18:83:6a:83:93:9b:5f:b4:a1:57:32:a6:40:
         e4:3b:ad:42:ec:92:59:9e:11:d5:46:ac:e3:dc:b4:ee:aa:10:
         4a:5a:d3:db:6d:78:20:3e:78:f5:ae:f4:f8:e4:4a:61:8f:66:
         aa:a3:f2:2e:ef:de:44:0d:b2:70:1d:78:94:d9:01:87:3b:90:
         d7:b5:a2:91:24:9d:50:05:db:14:08:21:94:8e:78:00:0a:43:
         d5:a7:81:68:51:38:f3:6e:0e:1f:66:8e:ef:19:b0:56:28:b7:
         1c:59:1d:80:77:aa:92:96:33:90:8f:84:ea:3a:bb:86:6e:1b:
         96:98:c4:36:bc:7a:25:a1:46:6c:03:5d:fe:88:a3:dd:4c:a7:
         82:b0:37:cc:24:c3:30:f7:41:95:4b:26:ed:55:6c:a2:92:ee:
         8a:59:4b:9e:2c:a8:a4:44:6c:52:ea:13:d9:f7:3e:20:f0:c8:
         b6:3d:a8:7f:ea:50:3a:92:52:74:43:0d:8d:24:50:60:ba:53:
         fa:95:48:a1:8a:ac:9d:8f:92:ec:0b:8d:cb:b7:9b:d7:2e:48:
         fd:32:d6:40:2f:a1:73:60:1c:86:e1:4e:f2:4b:91:ee:72:14:
         32:b8:11:9d
-----BEGIN CERTIFICATE-----
MIIDYDCCAkigAwIBAgIRAKKL+OULM/T98xoV+2O6zYswDQYJKoZIhvcNAQELBQAw
DzENMAsGA1UEAwwEdnNmaTAeFw0yMzA2MDExNjAwNTRaFw0yNTA5MDMxNjAwNTRa
MBkxFzAVBgNVBAMMDjE5Mi4xNjguODYuMTI4MIIBIjANBgkqhkiG9w0BAQEFAAOC
AQ8AMIIBCgKCAQEAxtTVk0ao47HeDnBZqi6zUnRgdOh9ng8s8qC2LwsnGCIOSMS0
U6/4AAQ/WRxsGvLFLW7YjjTC8nQE+OxBpKgzmdhxcpUNOyzvXoGDGMfdbEd3/2jT
d1EY2Ain6UQ4zBi/rze4iq1aALHAiTv9zkGRz+1hYrIrrYCJybBTiS1z1vGwQMBs
4u2imZUDFyjscGKqf0uG2T3eiBozIMTgrN2ReGNqgSRA7PbvJwSLiMiR03Aqvn5J
iaiRGQMWufH4bdC63INVfp4a+ozHo3Sr3pRXJ38ScwU/CViD3WerLaTdG6ZBjDBE
bVhQRl6RHSDl+571gwvyYVUiuszLBZ2fGTQhbQIDAQABo4GsMIGpMAkGA1UdEwQC
MAAwHQYDVR0OBBYEFD2LH9HxgiruIJv7MUqtyLa6i7d4MEoGA1UdIwRDMEGAFHEZ
6OhmwWah/bJ0DoeAiyMDyDCioROkETAPMQ0wCwYDVQQDDAR2c2ZpghQf6sWIH3mW
s9xKD9lbs5dMR4j3djATBgNVHSUEDDAKBggrBgEFBQcDATALBgNVHQ8EBAMCBaAw
DwYDVR0RBAgwBocEwKhWgDANBgkqhkiG9w0BAQsFAAOCAQEAQ6rwIOFFKbq6/k4/
a+zoF42nOJKmHJ4Yg2qDk5tftKFXMqZA5DutQuySWZ4R1Uas49y07qoQSlrT2214
ID549a70+ORKYY9mqqPyLu/eRA2ycB14lNkBhzuQ17WikSSdUAXbFAghlI54AApD
1aeBaFE4824OH2aO7xmwVii3HFkdgHeqkpYzkI+E6jq7hm4blpjENrx6JaFGbANd
/oij3UyngrA3zCTDMPdBlUsm7VVsopLuillLniyopERsUuoT2fc+IPDItj2of+pQ
OpJSdEMNjSRQYLpT+pVIoYqsnY+S7AuNy7eb1y5I/TLWQC+hc2AchuFO8kuR7nIU
MrgRnQ==
-----END CERTIFICATE-----
